; Function Attrs: mustprogress uwtable
define void @_ZN17grpc_event_engine12experimental17PosixEndpointImpl31UnrefMaybePutZerocopySendRecordEPNS0_21TcpZerocopySendRecordE(ptr noundef nonnull readonly align 16 captures(none) dereferenceable(904) %0, ptr noundef %1) local_unnamed_addr #5 align 2 personality ptr @__gxx_personality_v0 {
  %3 = getelementptr inbounds nuw i8, ptr %1, i64 232
  %4 = atomicrmw sub ptr %3, i64 1 acq_rel, align 8
  %5 = icmp eq i64 %4, 1
  br i1 %5, label %6, label %_ZN17grpc_event_engine12experimental21TcpZerocopySendRecord5UnrefEv.exit

6:                                                ; preds = %2
  tail call void @grpc_slice_buffer_reset_and_unref(ptr noundef nonnull align 8 dereferenceable(256) %1)
  %7 = getelementptr inbounds nuw i8, ptr %0, i64 824
  %8 = load ptr, ptr %7, align 8, !tbaa !182
  %9 = getelementptr inbounds nuw i8, ptr %8, i64 24
  tail call void @_ZN4absl12lts_202407225Mutex4LockEv(ptr noundef nonnull align 8 dereferenceable(8) %9)
  %10 = getelementptr inbounds nuw i8, ptr %8, i64 8
  %11 = load ptr, ptr %10, align 8, !tbaa !262
  %12 = getelementptr inbounds nuw i8, ptr %8, i64 20
  %13 = load i32, ptr %12, align 4, !tbaa !261
  %14 = sext i32 %13 to i64
  %15 = getelementptr inbounds ptr, ptr %11, i64 %14
  store ptr %1, ptr %15, align 8, !tbaa !263
  %16 = add nsw i32 %13, 1
  store i32 %16, ptr %12, align 4, !tbaa !261
  invoke void @_ZN4absl12lts_202407225Mutex6UnlockEv(ptr noundef nonnull align 8 dereferenceable(8) %9)
          to label %_ZN17grpc_event_engine12experimental21TcpZerocopySendRecord5UnrefEv.exit unwind label %17

17:                                               ; preds = %6
  %18 = landingpad { ptr, i32 }
          catch ptr null
  %19 = extractvalue { ptr, i32 } %18, 0
  tail call void @__clang_call_terminate(ptr %19) #43
  unreachable

_ZN17grpc_event_engine12experimental21TcpZerocopySendRecord5UnrefEv.exit: ; preds = %6, %2
  ret void
}